; Function Attrs: mustprogress nofree norecurse nosync nounwind willreturn memory(argmem: readwrite) uwtable
define internal void @ff_jref_idct1_put(ptr noundef writeonly captures(none) initializes((0, 1)) %0, i64 %1, ptr noundef readonly captures(none) %2) #5 {
  %4 = load i16, ptr %2, align 2, !tbaa !13
  %5 = sext i16 %4 to i32
  %6 = add nsw i32 %5, 4
  %7 = ashr i32 %6, 3
  %.not.i = icmp ult i32 %7, 256
  %isnotneg.i = icmp sgt i32 %7, -1
  %8 = sext i1 %isnotneg.i to i8
  %9 = trunc nuw i32 %7 to i8
  %.0.i = select i1 %.not.i, i8 %9, i8 %8
  store i8 %.0.i, ptr %0, align 1, !tbaa !4
  ret void
}